target datalayout = "e-m:e-p270:32:32-p271:32:32-p272:64:64-i64:64-i128:128-f80:128-n8:16:32:64-S128"
target triple = "x86_64-pc-linux-gnu"

%"struct.std::atomic" = type { %"struct.std::__atomic_base" }
%"struct.std::__atomic_base" = type { i64 }
%union.mi_page_flags_s = type { i8 }
%struct.mi_memid_s = type { %union.anon, i8, i8, i8, i32 }
%union.anon = type { %struct.mi_memid_os_info }
%struct.mi_memid_os_info = type { ptr, i64 }
%struct.mi_page_s = type { i32, i32, i8, i16, i16, %union.mi_page_flags_s, i8, ptr, ptr, i16, i8, i8, i64, ptr, %"struct.std::atomic", %"struct.std::atomic", ptr, ptr, [1 x ptr] }
%struct.mi_segment_s = type { %struct.mi_memid_s, i8, i8, i64, ptr, i64, %struct.mi_commit_mask_s, %struct.mi_commit_mask_s, ptr, i8, i8, i64, i64, i64, i64, ptr, ptr, i64, i64, i32, i64, %"struct.std::atomic", [513 x %struct.mi_page_s] }
%struct.mi_commit_mask_s = type { [8 x i64] }

; Function Attrs: inlinehint mustprogress nounwind uwtable
define internal noundef ptr @_ZL15_mi_ptr_segmentPKv(ptr noundef %0) #3 {
  %2 = alloca ptr, align 8
  %3 = alloca ptr, align 8
  store ptr %0, ptr %2, align 8, !tbaa !8
  call void @llvm.lifetime.start.p0(i64 8, ptr %3) #19
  %4 = load ptr, ptr %2, align 8, !tbaa !8
  %5 = ptrtoint ptr %4 to i64
  %6 = sub i64 %5, 1
  %7 = and i64 %6, -33554432
  %8 = inttoptr i64 %7 to ptr
  store ptr %8, ptr %3, align 8, !tbaa !21
  %9 = load ptr, ptr %3, align 8, !tbaa !21
  %10 = ptrtoint ptr %9 to i64
  %11 = icmp sle i64 %10, 0
  br i1 %11, label %12, label %13

12:                                               ; preds = %1
  br label %15

13:                                               ; preds = %1
  %14 = load ptr, ptr %3, align 8, !tbaa !21
  br label %15

15:                                               ; preds = %13, %12
  %16 = phi ptr [ null, %12 ], [ %14, %13 ]
  call void @llvm.lifetime.end.p0(i64 8, ptr %3) #19
  ret ptr %16
}

; Function Attrs: inlinehint mustprogress nounwind uwtable
define internal noundef ptr @_ZL16_mi_page_segmentPK9mi_page_s(ptr noundef %0) #3 {
  %2 = alloca ptr, align 8
  %3 = alloca ptr, align 8
  store ptr %0, ptr %2, align 8, !tbaa !3
  call void @llvm.lifetime.start.p0(i64 8, ptr %3) #19
  %4 = load ptr, ptr %2, align 8, !tbaa !3
  %5 = call noundef ptr @_ZL15_mi_ptr_segmentPKv(ptr noundef %4)
  store ptr %5, ptr %3, align 8, !tbaa !21
  %6 = load ptr, ptr %3, align 8, !tbaa !21
  call void @llvm.lifetime.end.p0(i64 8, ptr %3) #19
  ret ptr %6
}

; Function Attrs: mustprogress uwtable
define hidden void @_Z21_mi_segment_page_freeP9mi_page_sbP17mi_segments_tld_s(ptr noundef %0, i1 noundef zeroext %1, ptr noundef %2) #0 {
  %4 = alloca ptr, align 8
  %5 = alloca i8, align 1
  %6 = alloca ptr, align 8
  %7 = alloca ptr, align 8
  store ptr %0, ptr %4, align 8, !tbaa !3
  %8 = zext i1 %1 to i8
  store i8 %8, ptr %5, align 1, !tbaa !23
  store ptr %2, ptr %6, align 8, !tbaa !318
  call void @llvm.lifetime.start.p0(i64 8, ptr %7) #19
  %9 = load ptr, ptr %4, align 8, !tbaa !3
  %10 = call noundef ptr @_ZL16_mi_page_segmentPK9mi_page_s(ptr noundef %9)
  store ptr %10, ptr %7, align 8, !tbaa !21
  %11 = load ptr, ptr %4, align 8, !tbaa !3
  %12 = load ptr, ptr %6, align 8, !tbaa !318
  %13 = call noundef ptr @_ZL21mi_segment_page_clearP9mi_page_sP17mi_segments_tld_s(ptr noundef %11, ptr noundef %12)
  %14 = load ptr, ptr %7, align 8, !tbaa !21
  %15 = getelementptr inbounds nuw %struct.mi_segment_s, ptr %14, i32 0, i32 13
  %16 = load i64, ptr %15, align 8, !tbaa !322
  %17 = icmp eq i64 %16, 0
  br i1 %17, label %18, label %23

18:                                               ; preds = %3
  %19 = load ptr, ptr %7, align 8, !tbaa !21
  %20 = load i8, ptr %5, align 1, !tbaa !23, !range !25, !noundef !26
  %21 = trunc i8 %20 to i1
  %22 = load ptr, ptr %6, align 8, !tbaa !318
  call void @_ZL15mi_segment_freeP12mi_segment_sbP17mi_segments_tld_s(ptr noundef %19, i1 noundef zeroext %21, ptr noundef %22)
  br label %37

23:                                               ; preds = %3
  %24 = load ptr, ptr %7, align 8, !tbaa !21
  %25 = getelementptr inbounds nuw %struct.mi_segment_s, ptr %24, i32 0, i32 13
  %26 = load i64, ptr %25, align 8, !tbaa !322
  %27 = load ptr, ptr %7, align 8, !tbaa !21
  %28 = getelementptr inbounds nuw %struct.mi_segment_s, ptr %27, i32 0, i32 11
  %29 = load i64, ptr %28, align 8, !tbaa !320
  %30 = icmp eq i64 %26, %29
  br i1 %30, label %31, label %34

31:                                               ; preds = %23
  %32 = load ptr, ptr %7, align 8, !tbaa !21
  %33 = load ptr, ptr %6, align 8, !tbaa !318
  call void @_ZL18mi_segment_abandonP12mi_segment_sP17mi_segments_tld_s(ptr noundef %32, ptr noundef %33)
  br label %36

34:                                               ; preds = %23
  %35 = load ptr, ptr %7, align 8, !tbaa !21
  call void @_ZL20mi_segment_try_purgeP12mi_segment_sb(ptr noundef %35, i1 noundef zeroext false)
  br label %36

36:                                               ; preds = %34, %31
  br label %37

37:                                               ; preds = %36, %18
  call void @llvm.lifetime.end.p0(i64 8, ptr %7) #19
  ret void
}