; Function Attrs: mustprogress uwtable
define hidden void @_Z21_mi_segment_page_freeP9mi_page_sbP17mi_segments_tld_s(ptr noundef %0, i1 noundef zeroext %1, ptr noundef captures(address) %2) local_unnamed_addr #6 {
  %4 = ptrtoint ptr %0 to i64
  %5 = add i64 %4, -1
  %6 = and i64 %5, -33554432
  %7 = inttoptr i64 %6 to ptr
  %8 = tail call fastcc noundef ptr @_ZL21mi_segment_page_clearP9mi_page_sP17mi_segments_tld_s(ptr noundef %0, ptr noundef %2)
  %9 = getelementptr inbounds nuw i8, ptr %7, i64 216
  %10 = load i64, ptr %9, align 8, !tbaa !207
  %11 = icmp eq i64 %10, 0
  br i1 %11, label %12, label %13

12:                                               ; preds = %3
  tail call fastcc void @_ZL15mi_segment_freeP12mi_segment_sbP17mi_segments_tld_s(ptr noundef nonnull %7, ptr noundef %2)
  br label %19

13:                                               ; preds = %3
  %14 = getelementptr inbounds nuw i8, ptr %7, i64 200
  %15 = load i64, ptr %14, align 8, !tbaa !208
  %16 = icmp eq i64 %10, %15
  br i1 %16, label %17, label %18

17:                                               ; preds = %13
  tail call fastcc void @_ZL18mi_segment_abandonP12mi_segment_sP17mi_segments_tld_s(ptr noundef nonnull %7, ptr noundef %2)
  br label %19

18:                                               ; preds = %13
  tail call fastcc void @_ZL20mi_segment_try_purgeP12mi_segment_sb(ptr noundef nonnull %7, i1 noundef zeroext false)
  br label %19

19:                                               ; preds = %17, %18, %12
  ret void
}